target datalayout = "e-m:e-p270:32:32-p271:32:32-p272:64:64-i64:64-i128:128-f80:128-n8:16:32:64-S128"
target triple = "x86_64-pc-linux-gnu"

%struct.QualCost = type { double, double }
%struct.ParamPathInfo = type { i32, ptr, double, ptr, ptr }
%struct.Path = type { i32, i32, ptr, ptr, ptr, i8, i8, i32, double, i32, double, double, ptr }
%struct.RelOptInfo = type { i32, i32, ptr, double, i8, i8, i8, ptr, ptr, ptr, ptr, ptr, ptr, ptr, ptr, ptr, ptr, i32, i32, i32, i16, i16, ptr, ptr, ptr, ptr, ptr, ptr, ptr, ptr, i32, double, double, ptr, ptr, ptr, i32, i32, i32, i32, i8, ptr, ptr, ptr, ptr, ptr, %struct.QualCost, i32, ptr, i8, i8, ptr, ptr, ptr, ptr, i32, ptr, i8, ptr, ptr, ptr, ptr, ptr, ptr }
%struct.PathTarget = type { i32, ptr, ptr, %struct.QualCost, i32, i32 }
%struct.PlannerInfo = type { i32, ptr, ptr, i32, ptr, ptr, ptr, ptr, i32, ptr, ptr, ptr, ptr, ptr, ptr, ptr, ptr, i32, ptr, ptr, ptr, ptr, ptr, i8, ptr, ptr, ptr, ptr, ptr, i32, ptr, ptr, ptr, ptr, ptr, ptr, ptr, i32, ptr, ptr, ptr, i32, ptr, ptr, ptr, ptr, ptr, ptr, [8 x ptr], [8 x ptr], ptr, ptr, ptr, ptr, ptr, ptr, ptr, double, double, double, i32, i8, i8, i8, i8, i8, i8, i8, i32, ptr, ptr, i32, i8, i8, i32, ptr, ptr, ptr, ptr, ptr, ptr, i8, ptr }
%struct.Query = type { i32, i32, i32, i64, i8, ptr, i32, i8, i8, i8, i8, i8, i8, i8, i8, i8, i8, i8, ptr, ptr, ptr, ptr, ptr, i32, ptr, ptr, i32, ptr, ptr, ptr, ptr, ptr, i8, ptr, ptr, ptr, ptr, ptr, ptr, ptr, i32, ptr, ptr, ptr, ptr, i32, i32 }
%struct.RangeTblEntry = type { i32, ptr, ptr, i32, i32, i8, i8, i32, i32, ptr, ptr, i8, i32, i32, ptr, ptr, ptr, ptr, ptr, i8, ptr, ptr, ptr, i32, i8, ptr, ptr, ptr, ptr, double, ptr, i8, i8, ptr }
%struct.ForEachState = type { ptr, i32 }
%struct.List = type { i32, i32, i32, ptr, [0 x %union.ListCell] }
%union.ListCell = type { ptr }
%struct.cost_qual_eval_context = type { ptr, %struct.QualCost }

@cpu_tuple_cost = dso_local global double 1.000000e-02, align 8

; Function Attrs: nounwind uwtable
define dso_local void @cost_qual_eval(ptr noundef %0, ptr noundef %1, ptr noundef %2) #0 {
  %4 = alloca ptr, align 8
  %5 = alloca ptr, align 8
  %6 = alloca ptr, align 8
  %7 = alloca %struct.cost_qual_eval_context, align 8
  %8 = alloca ptr, align 8
  %9 = alloca %struct.ForEachState, align 8
  %10 = alloca ptr, align 8
  store ptr %0, ptr %4, align 8
  store ptr %1, ptr %5, align 8
  store ptr %2, ptr %6, align 8
  call void @llvm.lifetime.start.p0(i64 24, ptr %7) #9
  call void @llvm.lifetime.start.p0(i64 8, ptr %8) #9
  %11 = load ptr, ptr %6, align 8
  %12 = getelementptr inbounds nuw %struct.cost_qual_eval_context, ptr %7, i32 0, i32 0
  store ptr %11, ptr %12, align 8
  %13 = getelementptr inbounds nuw %struct.cost_qual_eval_context, ptr %7, i32 0, i32 1
  %14 = getelementptr inbounds nuw %struct.QualCost, ptr %13, i32 0, i32 0
  store double 0.000000e+00, ptr %14, align 8
  %15 = getelementptr inbounds nuw %struct.cost_qual_eval_context, ptr %7, i32 0, i32 1
  %16 = getelementptr inbounds nuw %struct.QualCost, ptr %15, i32 0, i32 1
  store double 0.000000e+00, ptr %16, align 8
  call void @llvm.lifetime.start.p0(i64 16, ptr %9) #9
  %17 = getelementptr inbounds nuw %struct.ForEachState, ptr %9, i32 0, i32 0
  %18 = load ptr, ptr %5, align 8
  store ptr %18, ptr %17, align 8
  %19 = getelementptr inbounds nuw %struct.ForEachState, ptr %9, i32 0, i32 1
  store i32 0, ptr %19, align 8
  %20 = getelementptr i8, ptr %9, i64 12
  call void @llvm.memset.p0.i64(ptr align 4 %20, i8 0, i64 4, i1 false)
  br label %21

21:                                               ; preds = %52, %3
  %22 = getelementptr inbounds nuw %struct.ForEachState, ptr %9, i32 0, i32 0
  %23 = load ptr, ptr %22, align 8
  %24 = icmp ne ptr %23, null
  br i1 %24, label %25, label %42

25:                                               ; preds = %21
  %26 = getelementptr inbounds nuw %struct.ForEachState, ptr %9, i32 0, i32 1
  %27 = load i32, ptr %26, align 8
  %28 = getelementptr inbounds nuw %struct.ForEachState, ptr %9, i32 0, i32 0
  %29 = load ptr, ptr %28, align 8
  %30 = getelementptr inbounds nuw %struct.List, ptr %29, i32 0, i32 1
  %31 = load i32, ptr %30, align 4
  %32 = icmp slt i32 %27, %31
  br i1 %32, label %33, label %42

33:                                               ; preds = %25
  %34 = getelementptr inbounds nuw %struct.ForEachState, ptr %9, i32 0, i32 0
  %35 = load ptr, ptr %34, align 8
  %36 = getelementptr inbounds nuw %struct.List, ptr %35, i32 0, i32 3
  %37 = load ptr, ptr %36, align 8
  %38 = getelementptr inbounds nuw %struct.ForEachState, ptr %9, i32 0, i32 1
  %39 = load i32, ptr %38, align 8
  %40 = sext i32 %39 to i64
  %41 = getelementptr inbounds %union.ListCell, ptr %37, i64 %40
  store ptr %41, ptr %8, align 8
  br label %43

42:                                               ; preds = %25, %21
  store ptr null, ptr %8, align 8
  br label %43

43:                                               ; preds = %42, %33
  %44 = phi i32 [ 1, %33 ], [ 0, %42 ]
  %45 = icmp ne i32 %44, 0
  br i1 %45, label %47, label %46

46:                                               ; preds = %43
  call void @llvm.lifetime.end.p0(i64 16, ptr %9) #9
  br label %56

47:                                               ; preds = %43
  call void @llvm.lifetime.start.p0(i64 8, ptr %10) #9
  %48 = load ptr, ptr %8, align 8
  %49 = load ptr, ptr %48, align 8
  store ptr %49, ptr %10, align 8
  %50 = load ptr, ptr %10, align 8
  %51 = call zeroext i1 @cost_qual_eval_walker(ptr noundef %50, ptr noundef %7)
  call void @llvm.lifetime.end.p0(i64 8, ptr %10) #9
  br label %52

52:                                               ; preds = %47
  %53 = getelementptr inbounds nuw %struct.ForEachState, ptr %9, i32 0, i32 1
  %54 = load i32, ptr %53, align 8
  %55 = add i32 %54, 1
  store i32 %55, ptr %53, align 8
  br label %21, !llvm.loop !8

56:                                               ; preds = %46
  %57 = load ptr, ptr %4, align 8
  %58 = getelementptr inbounds nuw %struct.cost_qual_eval_context, ptr %7, i32 0, i32 1
  call void @llvm.memcpy.p0.p0.i64(ptr align 8 %57, ptr align 8 %58, i64 16, i1 false)
  call void @llvm.lifetime.end.p0(i64 8, ptr %8) #9
  call void @llvm.lifetime.end.p0(i64 24, ptr %7) #9
  ret void
}

; Function Attrs: inlinehint nounwind uwtable
define internal ptr @list_nth_cell(ptr noundef %0, i32 noundef %1) #4 {
  %3 = alloca ptr, align 8
  %4 = alloca i32, align 4
  store ptr %0, ptr %3, align 8
  store i32 %1, ptr %4, align 4
  %5 = load ptr, ptr %3, align 8
  %6 = getelementptr inbounds nuw %struct.List, ptr %5, i32 0, i32 3
  %7 = load ptr, ptr %6, align 8
  %8 = load i32, ptr %4, align 4
  %9 = sext i32 %8 to i64
  %10 = getelementptr inbounds %union.ListCell, ptr %7, i64 %9
  ret ptr %10
}

; Function Attrs: nounwind uwtable
define internal void @get_restriction_qual_cost(ptr noundef %0, ptr noundef %1, ptr noundef %2, ptr noundef %3) #0 {
  %5 = alloca ptr, align 8
  %6 = alloca ptr, align 8
  %7 = alloca ptr, align 8
  %8 = alloca ptr, align 8
  store ptr %0, ptr %5, align 8
  store ptr %1, ptr %6, align 8
  store ptr %2, ptr %7, align 8
  store ptr %3, ptr %8, align 8
  %9 = load ptr, ptr %7, align 8
  %10 = icmp ne ptr %9, null
  br i1 %10, label %11, label %33

11:                                               ; preds = %4
  %12 = load ptr, ptr %8, align 8
  %13 = load ptr, ptr %7, align 8
  %14 = getelementptr inbounds nuw %struct.ParamPathInfo, ptr %13, i32 0, i32 3
  %15 = load ptr, ptr %14, align 8
  %16 = load ptr, ptr %5, align 8
  call void @cost_qual_eval(ptr noundef %12, ptr noundef %15, ptr noundef %16)
  %17 = load ptr, ptr %6, align 8
  %18 = getelementptr inbounds nuw %struct.RelOptInfo, ptr %17, i32 0, i32 46
  %19 = getelementptr inbounds nuw %struct.QualCost, ptr %18, i32 0, i32 0
  %20 = load double, ptr %19, align 8
  %21 = load ptr, ptr %8, align 8
  %22 = getelementptr inbounds nuw %struct.QualCost, ptr %21, i32 0, i32 0
  %23 = load double, ptr %22, align 8
  %24 = fadd double %23, %20
  store double %24, ptr %22, align 8
  %25 = load ptr, ptr %6, align 8
  %26 = getelementptr inbounds nuw %struct.RelOptInfo, ptr %25, i32 0, i32 46
  %27 = getelementptr inbounds nuw %struct.QualCost, ptr %26, i32 0, i32 1
  %28 = load double, ptr %27, align 8
  %29 = load ptr, ptr %8, align 8
  %30 = getelementptr inbounds nuw %struct.QualCost, ptr %29, i32 0, i32 1
  %31 = load double, ptr %30, align 8
  %32 = fadd double %31, %28
  store double %32, ptr %30, align 8
  br label %37

33:                                               ; preds = %4
  %34 = load ptr, ptr %8, align 8
  %35 = load ptr, ptr %6, align 8
  %36 = getelementptr inbounds nuw %struct.RelOptInfo, ptr %35, i32 0, i32 46
  call void @llvm.memcpy.p0.p0.i64(ptr align 8 %34, ptr align 8 %36, i64 16, i1 false)
  br label %37

37:                                               ; preds = %33, %11
  ret void
}

; Function Attrs: nounwind uwtable
define dso_local void @cost_qual_eval_node(ptr noundef %0, ptr noundef %1, ptr noundef %2) #0 {
  %4 = alloca ptr, align 8
  %5 = alloca ptr, align 8
  %6 = alloca ptr, align 8
  %7 = alloca %struct.cost_qual_eval_context, align 8
  store ptr %0, ptr %4, align 8
  store ptr %1, ptr %5, align 8
  store ptr %2, ptr %6, align 8
  call void @llvm.lifetime.start.p0(i64 24, ptr %7) #9
  %8 = load ptr, ptr %6, align 8
  %9 = getelementptr inbounds nuw %struct.cost_qual_eval_context, ptr %7, i32 0, i32 0
  store ptr %8, ptr %9, align 8
  %10 = getelementptr inbounds nuw %struct.cost_qual_eval_context, ptr %7, i32 0, i32 1
  %11 = getelementptr inbounds nuw %struct.QualCost, ptr %10, i32 0, i32 0
  store double 0.000000e+00, ptr %11, align 8
  %12 = getelementptr inbounds nuw %struct.cost_qual_eval_context, ptr %7, i32 0, i32 1
  %13 = getelementptr inbounds nuw %struct.QualCost, ptr %12, i32 0, i32 1
  store double 0.000000e+00, ptr %13, align 8
  %14 = load ptr, ptr %5, align 8
  %15 = call zeroext i1 @cost_qual_eval_walker(ptr noundef %14, ptr noundef %7)
  %16 = load ptr, ptr %4, align 8
  %17 = getelementptr inbounds nuw %struct.cost_qual_eval_context, ptr %7, i32 0, i32 1
  call void @llvm.memcpy.p0.p0.i64(ptr align 8 %16, ptr align 8 %17, i64 16, i1 false)
  call void @llvm.lifetime.end.p0(i64 24, ptr %7) #9
  ret void
}

; Function Attrs: inlinehint nounwind uwtable
define internal ptr @list_nth(ptr noundef %0, i32 noundef %1) #4 {
  %3 = alloca ptr, align 8
  %4 = alloca i32, align 4
  store ptr %0, ptr %3, align 8
  store i32 %1, ptr %4, align 4
  %5 = load ptr, ptr %3, align 8
  %6 = load i32, ptr %4, align 4
  %7 = call ptr @list_nth_cell(ptr noundef %5, i32 noundef %6)
  %8 = load ptr, ptr %7, align 8
  ret ptr %8
}

; Function Attrs: nounwind uwtable
define dso_local void @cost_functionscan(ptr noundef %0, ptr noundef %1, ptr noundef %2, ptr noundef %3) #0 {
  %5 = alloca ptr, align 8
  %6 = alloca ptr, align 8
  %7 = alloca ptr, align 8
  %8 = alloca ptr, align 8
  %9 = alloca double, align 8
  %10 = alloca double, align 8
  %11 = alloca %struct.QualCost, align 8
  %12 = alloca double, align 8
  %13 = alloca ptr, align 8
  %14 = alloca %struct.QualCost, align 8
  store ptr %0, ptr %5, align 8
  store ptr %1, ptr %6, align 8
  store ptr %2, ptr %7, align 8
  store ptr %3, ptr %8, align 8
  call void @llvm.lifetime.start.p0(i64 8, ptr %9) #9
  store double 0.000000e+00, ptr %9, align 8
  call void @llvm.lifetime.start.p0(i64 8, ptr %10) #9
  store double 0.000000e+00, ptr %10, align 8
  call void @llvm.lifetime.start.p0(i64 16, ptr %11) #9
  call void @llvm.lifetime.start.p0(i64 8, ptr %12) #9
  call void @llvm.lifetime.start.p0(i64 8, ptr %13) #9
  call void @llvm.lifetime.start.p0(i64 16, ptr %14) #9
  %15 = load ptr, ptr %6, align 8
  %16 = getelementptr inbounds nuw %struct.PlannerInfo, ptr %15, i32 0, i32 9
  %17 = load ptr, ptr %16, align 8
  %18 = icmp ne ptr %17, null
  br i1 %18, label %19, label %29

19:                                               ; preds = %4
  %20 = load ptr, ptr %6, align 8
  %21 = getelementptr inbounds nuw %struct.PlannerInfo, ptr %20, i32 0, i32 9
  %22 = load ptr, ptr %21, align 8
  %23 = load ptr, ptr %7, align 8
  %24 = getelementptr inbounds nuw %struct.RelOptInfo, ptr %23, i32 0, i32 17
  %25 = load i32, ptr %24, align 8
  %26 = zext i32 %25 to i64
  %27 = getelementptr inbounds nuw ptr, ptr %22, i64 %26
  %28 = load ptr, ptr %27, align 8
  br label %40

29:                                               ; preds = %4
  %30 = load ptr, ptr %6, align 8
  %31 = getelementptr inbounds nuw %struct.PlannerInfo, ptr %30, i32 0, i32 1
  %32 = load ptr, ptr %31, align 8
  %33 = getelementptr inbounds nuw %struct.Query, ptr %32, i32 0, i32 19
  %34 = load ptr, ptr %33, align 8
  %35 = load ptr, ptr %7, align 8
  %36 = getelementptr inbounds nuw %struct.RelOptInfo, ptr %35, i32 0, i32 17
  %37 = load i32, ptr %36, align 8
  %38 = sub i32 %37, 1
  %39 = call ptr @list_nth(ptr noundef %34, i32 noundef %38)
  br label %40

40:                                               ; preds = %29, %19
  %41 = phi ptr [ %28, %19 ], [ %39, %29 ]
  store ptr %41, ptr %13, align 8
  %42 = load ptr, ptr %8, align 8
  %43 = icmp ne ptr %42, null
  br i1 %43, label %44, label %50

44:                                               ; preds = %40
  %45 = load ptr, ptr %8, align 8
  %46 = getelementptr inbounds nuw %struct.ParamPathInfo, ptr %45, i32 0, i32 2
  %47 = load double, ptr %46, align 8
  %48 = load ptr, ptr %5, align 8
  %49 = getelementptr inbounds nuw %struct.Path, ptr %48, i32 0, i32 8
  store double %47, ptr %49, align 8
  br label %56

50:                                               ; preds = %40
  %51 = load ptr, ptr %7, align 8
  %52 = getelementptr inbounds nuw %struct.RelOptInfo, ptr %51, i32 0, i32 3
  %53 = load double, ptr %52, align 8
  %54 = load ptr, ptr %5, align 8
  %55 = getelementptr inbounds nuw %struct.Path, ptr %54, i32 0, i32 8
  store double %53, ptr %55, align 8
  br label %56

56:                                               ; preds = %50, %44
  %57 = load ptr, ptr %13, align 8
  %58 = getelementptr inbounds nuw %struct.RangeTblEntry, ptr %57, i32 0, i32 18
  %59 = load ptr, ptr %58, align 8
  %60 = load ptr, ptr %6, align 8
  call void @cost_qual_eval_node(ptr noundef %14, ptr noundef %59, ptr noundef %60)
  %61 = getelementptr inbounds nuw %struct.QualCost, ptr %14, i32 0, i32 0
  %62 = load double, ptr %61, align 8
  %63 = getelementptr inbounds nuw %struct.QualCost, ptr %14, i32 0, i32 1
  %64 = load double, ptr %63, align 8
  %65 = fadd double %62, %64
  %66 = load double, ptr %9, align 8
  %67 = fadd double %66, %65
  store double %67, ptr %9, align 8
  %68 = load ptr, ptr %6, align 8
  %69 = load ptr, ptr %7, align 8
  %70 = load ptr, ptr %8, align 8
  call void @get_restriction_qual_cost(ptr noundef %68, ptr noundef %69, ptr noundef %70, ptr noundef %11)
  %71 = getelementptr inbounds nuw %struct.QualCost, ptr %11, i32 0, i32 0
  %72 = load double, ptr %71, align 8
  %73 = load double, ptr %9, align 8
  %74 = fadd double %73, %72
  store double %74, ptr %9, align 8
  %75 = load double, ptr @cpu_tuple_cost, align 8
  %76 = getelementptr inbounds nuw %struct.QualCost, ptr %11, i32 0, i32 1
  %77 = load double, ptr %76, align 8
  %78 = fadd double %75, %77
  store double %78, ptr %12, align 8
  %79 = load double, ptr %12, align 8
  %80 = load ptr, ptr %7, align 8
  %81 = getelementptr inbounds nuw %struct.RelOptInfo, ptr %80, i32 0, i32 31
  %82 = load double, ptr %81, align 8
  %83 = load double, ptr %10, align 8
  %84 = call double @llvm.fmuladd.f64(double %79, double %82, double %83)
  store double %84, ptr %10, align 8
  %85 = load ptr, ptr %5, align 8
  %86 = getelementptr inbounds nuw %struct.Path, ptr %85, i32 0, i32 3
  %87 = load ptr, ptr %86, align 8
  %88 = getelementptr inbounds nuw %struct.PathTarget, ptr %87, i32 0, i32 3
  %89 = getelementptr inbounds nuw %struct.QualCost, ptr %88, i32 0, i32 0
  %90 = load double, ptr %89, align 8
  %91 = load double, ptr %9, align 8
  %92 = fadd double %91, %90
  store double %92, ptr %9, align 8
  %93 = load ptr, ptr %5, align 8
  %94 = getelementptr inbounds nuw %struct.Path, ptr %93, i32 0, i32 3
  %95 = load ptr, ptr %94, align 8
  %96 = getelementptr inbounds nuw %struct.PathTarget, ptr %95, i32 0, i32 3
  %97 = getelementptr inbounds nuw %struct.QualCost, ptr %96, i32 0, i32 1
  %98 = load double, ptr %97, align 8
  %99 = load ptr, ptr %5, align 8
  %100 = getelementptr inbounds nuw %struct.Path, ptr %99, i32 0, i32 8
  %101 = load double, ptr %100, align 8
  %102 = load double, ptr %10, align 8
  %103 = call double @llvm.fmuladd.f64(double %98, double %101, double %102)
  store double %103, ptr %10, align 8
  %104 = load ptr, ptr %5, align 8
  %105 = getelementptr inbounds nuw %struct.Path, ptr %104, i32 0, i32 9
  store i32 0, ptr %105, align 8
  %106 = load double, ptr %9, align 8
  %107 = load ptr, ptr %5, align 8
  %108 = getelementptr inbounds nuw %struct.Path, ptr %107, i32 0, i32 10
  store double %106, ptr %108, align 8
  %109 = load double, ptr %9, align 8
  %110 = load double, ptr %10, align 8
  %111 = fadd double %109, %110
  %112 = load ptr, ptr %5, align 8
  %113 = getelementptr inbounds nuw %struct.Path, ptr %112, i32 0, i32 11
  store double %111, ptr %113, align 8
  call void @llvm.lifetime.end.p0(i64 16, ptr %14) #9
  call void @llvm.lifetime.end.p0(i64 8, ptr %13) #9
  call void @llvm.lifetime.end.p0(i64 8, ptr %12) #9
  call void @llvm.lifetime.end.p0(i64 16, ptr %11) #9
  call void @llvm.lifetime.end.p0(i64 8, ptr %10) #9
  call void @llvm.lifetime.end.p0(i64 8, ptr %9) #9
  ret void
}